target datalayout = "e-m:e-p270:32:32-p271:32:32-p272:64:64-i64:64-i128:128-f80:128-n8:16:32:64-S128"
target triple = "x86_64-pc-linux-gnu"

; Function Attrs: mustprogress noinline uwtable
define internal void @_ZN4absl18debugging_internalL15DemangleInplaceEPcmS1_m(ptr noundef %0, i64 noundef %1, ptr noundef %2, i64 noundef %3) #15 {
  %5 = alloca ptr, align 8
  %6 = alloca i64, align 8
  %7 = alloca ptr, align 8
  %8 = alloca i64, align 8
  %9 = alloca i64, align 8
  store ptr %0, ptr %5, align 8, !tbaa !4
  store i64 %1, ptr %6, align 8, !tbaa !20
  store ptr %2, ptr %7, align 8, !tbaa !4
  store i64 %3, ptr %8, align 8, !tbaa !20
  %10 = load ptr, ptr %5, align 8, !tbaa !4
  %11 = load ptr, ptr %7, align 8, !tbaa !4
  %12 = load i64, ptr %8, align 8, !tbaa !20
  %13 = call noundef zeroext i1 @_ZN4absl18debugging_internal8DemangleEPKcPcm(ptr noundef %10, ptr noundef %11, i64 noundef %12)
  br i1 %13, label %14, label %34

14:                                               ; preds = %4
  call void @llvm.lifetime.start.p0(i64 8, ptr %9) #17
  %15 = load ptr, ptr %7, align 8, !tbaa !4
  %16 = call i64 @strlen(ptr noundef %15) #20
  store i64 %16, ptr %9, align 8, !tbaa !20
  %17 = load i64, ptr %9, align 8, !tbaa !20
  %18 = add i64 %17, 1
  %19 = load i64, ptr %6, align 8, !tbaa !20
  %20 = icmp ule i64 %18, %19
  br i1 %20, label %21, label %33

21:                                               ; preds = %14
  %22 = load i64, ptr %9, align 8, !tbaa !20
  %23 = load i64, ptr %8, align 8, !tbaa !20
  %24 = icmp ult i64 %22, %23
  br i1 %24, label %25, label %26

25:                                               ; preds = %21
  br label %28

26:                                               ; preds = %21
  call void @abort() #24
  unreachable

27:                                               ; No predecessors!
  br label %28

28:                                               ; preds = %27, %25
  %29 = load ptr, ptr %5, align 8, !tbaa !4
  %30 = load ptr, ptr %7, align 8, !tbaa !4
  %31 = load i64, ptr %9, align 8, !tbaa !20
  %32 = add i64 %31, 1
  call void @llvm.memmove.p0.p0.i64(ptr align 1 %29, ptr align 1 %30, i64 %32, i1 false)
  br label %33

33:                                               ; preds = %28, %14
  call void @llvm.lifetime.end.p0(i64 8, ptr %9) #17
  br label %34

34:                                               ; preds = %33, %4
  ret void
}