; Function Attrs: mustprogress noinline uwtable
define internal fastcc void @_ZN4absl18debugging_internalL15DemangleInplaceEPcmS1_m(ptr noundef nonnull %0, ptr noundef nonnull %1) unnamed_addr #15 {
  %3 = tail call noundef zeroext i1 @_ZN4absl18debugging_internal8DemangleEPKcPcm(ptr noundef nonnull %0, ptr noundef nonnull %1, i64 noundef 1024)
  br i1 %3, label %4, label %12

4:                                                ; preds = %2
  %5 = tail call i64 @strlen(ptr noundef nonnull dereferenceable(1) %1) #26
  %6 = add i64 %5, 1
  %7 = icmp ult i64 %6, 3073
  br i1 %7, label %8, label %12

8:                                                ; preds = %4
  %9 = icmp ult i64 %5, 1024
  br i1 %9, label %11, label %10

10:                                               ; preds = %8
  tail call void @abort() #29
  unreachable

11:                                               ; preds = %8
  tail call void @llvm.memmove.p0.p0.i64(ptr nonnull align 1 %0, ptr nonnull align 1 %1, i64 %6, i1 false)
  br label %12

12:                                               ; preds = %4, %11, %2
  ret void
}